; Function Attrs: mustprogress nounwind uwtable
define hidden void @_ZN4llvh5Timer4initENS_9StringRefES1_(ptr noundef nonnull align 8 dereferenceable(160) %this, ptr %Name.coerce0, i64 %Name.coerce1, ptr %Description.coerce0, i64 %Description.coerce1) local_unnamed_addr #0 align 2 {
entry:
  %0 = load atomic i64, ptr @_ZL17DefaultTimerGroup acquire, align 8
  %tobool.not.i.i = icmp eq i64 %0, 0
  br i1 %tobool.not.i.i, label %if.then.i.i, label %_ZL20getDefaultTimerGroupv.exit

if.then.i.i:                                      ; preds = %entry
  tail call void @_ZNK4llvh17ManagedStaticBase21RegisterManagedStaticEPFPvvEPFvS1_E(ptr noundef nonnull align 8 dereferenceable(24) @_ZL17DefaultTimerGroup, ptr noundef nonnull @_ZN12_GLOBAL__N_123CreateDefaultTimerGroup4callEv, ptr noundef nonnull @_ZN4llvh14object_deleterINS_10TimerGroupEE4callEPv) #21
  br label %_ZL20getDefaultTimerGroupv.exit

_ZL20getDefaultTimerGroupv.exit:                  ; preds = %entry, %if.then.i.i
  %1 = load atomic i64, ptr @_ZL17DefaultTimerGroup monotonic, align 8
  %atomic-temp.i.0.i1.i.i = inttoptr i64 %1 to ptr
  tail call void @_ZN4llvh5Timer4initENS_9StringRefES1_RNS_10TimerGroupE(ptr noundef nonnull align 8 dereferenceable(160) %this, ptr %Name.coerce0, i64 %Name.coerce1, ptr %Description.coerce0, i64 %Description.coerce1, ptr noundef nonnull align 8 dereferenceable(112) %atomic-temp.i.0.i1.i.i)
  ret void
}